target datalayout = "e-m:e-p270:32:32-p271:32:32-p272:64:64-i64:64-i128:128-f80:128-n8:16:32:64-S128"
target triple = "x86_64-pc-linux-gnu"

%"class.cv::Point_" = type { i32, i32 }

; Function Attrs: mustprogress nounwind uwtable
define hidden void @_ZN2cv4text10fitLineOLSENS_6Point_IiEES2_S2_RfS3_(i64 %0, i64 %1, i64 %2, ptr noundef nonnull align 4 dereferenceable(4) %3, ptr noundef nonnull align 4 dereferenceable(4) %4) #9 {
  %6 = alloca %"class.cv::Point_", align 4
  %7 = alloca %"class.cv::Point_", align 4
  %8 = alloca %"class.cv::Point_", align 4
  %9 = alloca ptr, align 8
  %10 = alloca ptr, align 8
  %11 = alloca float, align 4
  %12 = alloca float, align 4
  %13 = alloca float, align 4
  %14 = alloca float, align 4
  store i64 %0, ptr %6, align 4
  store i64 %1, ptr %7, align 4
  store i64 %2, ptr %8, align 4
  store ptr %3, ptr %9, align 8, !tbaa !298
  store ptr %4, ptr %10, align 8, !tbaa !298
  call void @llvm.lifetime.start.p0(i64 4, ptr %11) #3
  %15 = getelementptr inbounds nuw %"class.cv::Point_", ptr %6, i32 0, i32 0
  %16 = load i32, ptr %15, align 4, !tbaa !128
  %17 = getelementptr inbounds nuw %"class.cv::Point_", ptr %7, i32 0, i32 0
  %18 = load i32, ptr %17, align 4, !tbaa !128
  %19 = add nsw i32 %16, %18
  %20 = getelementptr inbounds nuw %"class.cv::Point_", ptr %8, i32 0, i32 0
  %21 = load i32, ptr %20, align 4, !tbaa !128
  %22 = add nsw i32 %19, %21
  %23 = sitofp i32 %22 to float
  store float %23, ptr %11, align 4, !tbaa !236
  call void @llvm.lifetime.start.p0(i64 4, ptr %12) #3
  %24 = getelementptr inbounds nuw %"class.cv::Point_", ptr %6, i32 0, i32 1
  %25 = load i32, ptr %24, align 4, !tbaa !126
  %26 = getelementptr inbounds nuw %"class.cv::Point_", ptr %7, i32 0, i32 1
  %27 = load i32, ptr %26, align 4, !tbaa !126
  %28 = add nsw i32 %25, %27
  %29 = getelementptr inbounds nuw %"class.cv::Point_", ptr %8, i32 0, i32 1
  %30 = load i32, ptr %29, align 4, !tbaa !126
  %31 = add nsw i32 %28, %30
  %32 = sitofp i32 %31 to float
  store float %32, ptr %12, align 4, !tbaa !236
  call void @llvm.lifetime.start.p0(i64 4, ptr %13) #3
  %33 = getelementptr inbounds nuw %"class.cv::Point_", ptr %6, i32 0, i32 0
  %34 = load i32, ptr %33, align 4, !tbaa !128
  %35 = getelementptr inbounds nuw %"class.cv::Point_", ptr %6, i32 0, i32 1
  %36 = load i32, ptr %35, align 4, !tbaa !126
  %37 = mul nsw i32 %34, %36
  %38 = getelementptr inbounds nuw %"class.cv::Point_", ptr %7, i32 0, i32 0
  %39 = load i32, ptr %38, align 4, !tbaa !128
  %40 = getelementptr inbounds nuw %"class.cv::Point_", ptr %7, i32 0, i32 1
  %41 = load i32, ptr %40, align 4, !tbaa !126
  %42 = mul nsw i32 %39, %41
  %43 = add nsw i32 %37, %42
  %44 = getelementptr inbounds nuw %"class.cv::Point_", ptr %8, i32 0, i32 0
  %45 = load i32, ptr %44, align 4, !tbaa !128
  %46 = getelementptr inbounds nuw %"class.cv::Point_", ptr %8, i32 0, i32 1
  %47 = load i32, ptr %46, align 4, !tbaa !126
  %48 = mul nsw i32 %45, %47
  %49 = add nsw i32 %43, %48
  %50 = sitofp i32 %49 to float
  store float %50, ptr %13, align 4, !tbaa !236
  call void @llvm.lifetime.start.p0(i64 4, ptr %14) #3
  %51 = getelementptr inbounds nuw %"class.cv::Point_", ptr %6, i32 0, i32 0
  %52 = load i32, ptr %51, align 4, !tbaa !128
  %53 = getelementptr inbounds nuw %"class.cv::Point_", ptr %6, i32 0, i32 0
  %54 = load i32, ptr %53, align 4, !tbaa !128
  %55 = mul nsw i32 %52, %54
  %56 = getelementptr inbounds nuw %"class.cv::Point_", ptr %7, i32 0, i32 0
  %57 = load i32, ptr %56, align 4, !tbaa !128
  %58 = getelementptr inbounds nuw %"class.cv::Point_", ptr %7, i32 0, i32 0
  %59 = load i32, ptr %58, align 4, !tbaa !128
  %60 = mul nsw i32 %57, %59
  %61 = add nsw i32 %55, %60
  %62 = getelementptr inbounds nuw %"class.cv::Point_", ptr %8, i32 0, i32 0
  %63 = load i32, ptr %62, align 4, !tbaa !128
  %64 = getelementptr inbounds nuw %"class.cv::Point_", ptr %8, i32 0, i32 0
  %65 = load i32, ptr %64, align 4, !tbaa !128
  %66 = mul nsw i32 %63, %65
  %67 = add nsw i32 %61, %66
  %68 = sitofp i32 %67 to float
  store float %68, ptr %14, align 4, !tbaa !236
  %69 = load float, ptr %12, align 4, !tbaa !236
  %70 = load float, ptr %14, align 4, !tbaa !236
  %71 = load float, ptr %11, align 4, !tbaa !236
  %72 = load float, ptr %13, align 4, !tbaa !236
  %73 = fmul float %71, %72
  %74 = fneg float %73
  %75 = call float @llvm.fmuladd.f32(float %69, float %70, float %74)
  %76 = load float, ptr %14, align 4, !tbaa !236
  %77 = load float, ptr %11, align 4, !tbaa !236
  %78 = load float, ptr %11, align 4, !tbaa !236
  %79 = fmul float %77, %78
  %80 = fneg float %79
  %81 = call float @llvm.fmuladd.f32(float 3.000000e+00, float %76, float %80)
  %82 = fdiv float %75, %81
  %83 = load ptr, ptr %9, align 8, !tbaa !298
  store float %82, ptr %83, align 4, !tbaa !236
  %84 = load float, ptr %13, align 4, !tbaa !236
  %85 = load float, ptr %11, align 4, !tbaa !236
  %86 = load float, ptr %12, align 4, !tbaa !236
  %87 = fmul float %85, %86
  %88 = fneg float %87
  %89 = call float @llvm.fmuladd.f32(float 3.000000e+00, float %84, float %88)
  %90 = load float, ptr %14, align 4, !tbaa !236
  %91 = load float, ptr %11, align 4, !tbaa !236
  %92 = load float, ptr %11, align 4, !tbaa !236
  %93 = fmul float %91, %92
  %94 = fneg float %93
  %95 = call float @llvm.fmuladd.f32(float 3.000000e+00, float %90, float %94)
  %96 = fdiv float %89, %95
  %97 = load ptr, ptr %10, align 8, !tbaa !298
  store float %96, ptr %97, align 4, !tbaa !236
  call void @llvm.lifetime.end.p0(i64 4, ptr %14) #3
  call void @llvm.lifetime.end.p0(i64 4, ptr %13) #3
  call void @llvm.lifetime.end.p0(i64 4, ptr %12) #3
  call void @llvm.lifetime.end.p0(i64 4, ptr %11) #3
  ret void
}