; Function Attrs: mustprogress nofree norecurse nosync nounwind willreturn memory(argmem: write) uwtable
define hidden void @_ZN2cv4text10fitLineOLSENS_6Point_IiEES2_S2_RfS3_(i64 %0, i64 %1, i64 %2, ptr noundef nonnull writeonly align 4 captures(none) dereferenceable(4) initializes((0, 4)) %3, ptr noundef nonnull writeonly align 4 captures(none) dereferenceable(4) initializes((0, 4)) %4) local_unnamed_addr #13 {
  %.sroa.025.0.extract.trunc = trunc i64 %0 to i32
  %.sroa.529.0.extract.shift = lshr i64 %0, 32
  %.sroa.529.0.extract.trunc = trunc nuw i64 %.sroa.529.0.extract.shift to i32
  %.sroa.019.0.extract.trunc = trunc i64 %1 to i32
  %.sroa.523.0.extract.shift = lshr i64 %1, 32
  %.sroa.523.0.extract.trunc = trunc nuw i64 %.sroa.523.0.extract.shift to i32
  %.sroa.0.0.extract.trunc = trunc i64 %2 to i32
  %.sroa.5.0.extract.shift = lshr i64 %2, 32
  %.sroa.5.0.extract.trunc = trunc nuw i64 %.sroa.5.0.extract.shift to i32
  %6 = add nsw i32 %.sroa.019.0.extract.trunc, %.sroa.025.0.extract.trunc
  %7 = add nsw i32 %6, %.sroa.0.0.extract.trunc
  %8 = sitofp i32 %7 to float
  %9 = add nsw i32 %.sroa.523.0.extract.trunc, %.sroa.529.0.extract.trunc
  %10 = add nsw i32 %9, %.sroa.5.0.extract.trunc
  %11 = sitofp i32 %10 to float
  %12 = mul nsw i32 %.sroa.529.0.extract.trunc, %.sroa.025.0.extract.trunc
  %13 = mul nsw i32 %.sroa.523.0.extract.trunc, %.sroa.019.0.extract.trunc
  %14 = add nsw i32 %13, %12
  %15 = mul nsw i32 %.sroa.5.0.extract.trunc, %.sroa.0.0.extract.trunc
  %16 = add nsw i32 %14, %15
  %17 = sitofp i32 %16 to float
  %18 = mul nsw i32 %.sroa.025.0.extract.trunc, %.sroa.025.0.extract.trunc
  %19 = mul nsw i32 %.sroa.019.0.extract.trunc, %.sroa.019.0.extract.trunc
  %20 = add nuw nsw i32 %19, %18
  %21 = mul nsw i32 %.sroa.0.0.extract.trunc, %.sroa.0.0.extract.trunc
  %22 = add nuw nsw i32 %20, %21
  %23 = uitofp nneg i32 %22 to float
  %24 = fneg float %17
  %25 = fmul float %8, %24
  %26 = tail call float @llvm.fmuladd.f32(float %11, float %23, float %25)
  %27 = fneg float %8
  %28 = fmul float %8, %27
  %29 = tail call float @llvm.fmuladd.f32(float %23, float 3.000000e+00, float %28)
  %30 = fdiv float %26, %29
  store float %30, ptr %3, align 4, !tbaa !252
  %31 = fneg float %11
  %32 = fmul float %8, %31
  %33 = tail call float @llvm.fmuladd.f32(float %17, float 3.000000e+00, float %32)
  %34 = fdiv float %33, %29
  store float %34, ptr %4, align 4, !tbaa !252
  ret void
}